; Function Attrs: mustprogress nofree norecurse nosync nounwind willreturn memory(read, inaccessiblemem: none) uwtable
define hidden noundef zeroext i1 @_ZN4cvc58internal6theory5arith6linear14ArithVariables16upperBoundIsZeroEj(ptr nocapture noundef nonnull readonly align 8 dereferenceable(568) %this, i32 noundef %x) local_unnamed_addr #7 align 2 {
entry:
  %d_image.i.i = getelementptr inbounds i8, ptr %this, i64 48
  %conv.i.i = zext i32 %x to i64
  %0 = load ptr, ptr %d_image.i.i, align 8
  %d_ub.i = getelementptr inbounds %"class.cvc5::internal::theory::arith::linear::ArithVariables::VarInfo", ptr %0, i64 %conv.i.i, i32 4
  %1 = load ptr, ptr %d_ub.i, align 8
  %cmp.i.not = icmp eq ptr %1, null
  br i1 %cmp.i.not, label %land.end, label %land.rhs

land.rhs:                                         ; preds = %entry
  %_mp_size.i.i = getelementptr inbounds i8, ptr %1, i64 12
  %2 = load i32, ptr %_mp_size.i.i, align 4
  %cmp6.i.i.not = icmp eq i32 %2, 0
  br i1 %cmp6.i.i.not, label %if.then.i, label %land.end

if.then.i:                                        ; preds = %land.rhs
  %_mp_size.i.i.i = getelementptr inbounds i8, ptr %1, i64 44
  %3 = load i32, ptr %_mp_size.i.i.i, align 4
  %cmp6.i.i.i.not = icmp eq i32 %3, 0
  br label %land.end

land.end:                                         ; preds = %if.then.i, %land.rhs, %entry
  %4 = phi i1 [ false, %entry ], [ %cmp6.i.i.i.not, %if.then.i ], [ false, %land.rhs ]
  ret i1 %4
}